Certificate:
    Data:
        Version: 3 (0x2)
        Serial Number:
            d2:17:a6:2e:85:4a:d9:dd:42:36:9c:77:c7:0e:16:1d
        Signature Algorithm: sha256WithRSAEncryption
        Issuer: CN=Easy-RSA CA
        Validity
            Not Before: Aug 22 08:10:37 2023 GMT
            Not After : Nov 24 08:10:37 2025 GMT
        Subject: CN=vpn
        Subject Public Key Info:
            Public Key Algorithm: rsaEncryption
                Public-Key: (2048 bit)
                Modulus:
                    00:9b:1f:6d:ab:f3:64:95:64:3f:8e:9d:f4:a3:87:
                    58:89:ad:29:0e:55:c6:c3:6d:06:99:76:8b:66:d3:
                    ee:ab:4b:57:dd:c6:0c:70:61:70:29:79:72:ca:8e:
                    27:2d:22:21:f4:af:11:f8:db:71:9a:ad:8d:3b:14:
                    c9:28:3f:e0:c5:1f:bc:54:fb:c4:f9:24:a3:1a:75:
                    3d:6e:33:a1:7e:87:9d:25:2a:40:b9:92:98:de:c4:
                    d6:5d:26:94:5f:54:26:45:28:90:e7:cd:1a:ca:b4:
                    01:d1:48:2d:d6:f2:4b:91:cd:7e:9d:78:ec:ab:fd:
                    86:d9:5b:c2:4f:dc:e5:41:f4:bd:ac:22:71:51:66:
                    71:c4:c6:24:c1:6d:75:24:a2:e9:23:40:87:70:49:
                    7d:b4:c4:f7:ba:51:bc:d8:e1:ff:75:0c:39:09:e3:
                    72:94:d0:be:46:be:f0:eb:6b:de:da:c1:10:fe:74:
                    e3:48:f4:b8:7c:c9:5b:84:bd:15:74:48:fe:69:8e:
                    ce:46:bb:b5:bf:ac:8a:3f:51:39:ec:e1:44:a2:cf:
                    30:fe:63:73:3a:88:43:90:48:e7:42:96:50:a0:76:
                    58:08:fd:2e:68:33:60:fa:87:d8:87:6d:77:63:35:
                    61:69:d9:24:ef:be:68:62:1c:24:3c:20:7a:67:c5:
                    27:0b
                Exponent: 65537 (0x10001)
        X509v3 extensions:
            X509v3 Basic Constraints: 
                CA:FALSE
            X509v3 Subject Key Identifier: 
                C1:9C:0B:21:63:1B:BC:6A:04:D9:CD:0E:52:74:95:69:31:B3:9C:E4
            X509v3 Authority Key Identifier: 
                keyid:BD:F8:31:4F:AE:A4:95:81:92:E1:F1:AF:B2:FA:8F:D6:4F:9C:BC:05
                DirName:/CN=Easy-RSA CA
                serial:3A:67:29:F6:D8:88:45:C5:78:D0:0E:D5:38:AB:DC:8E:C8:F1:1F:01
            X509v3 Extended Key Usage: 
                TLS Web Server Authentication
            X509v3 Key Usage: 
                Digital Signature, Key Encipherment
            X509v3 Subject Alternative Name: 
                DNS:vpn
    Signature Algorithm: sha256WithRSAEncryption
    Signature Value:
        47:5f:44:e2:69:87:98:88:3f:a6:87:fa:2f:0f:86:d8:ba:fc:
        b2:45:58:ed:65:b9:fc:df:d8:37:78:52:7f:b2:89:2e:d7:00:
        ee:9c:74:a5:41:68:86:df:22:ee:21:98:f2:d2:bc:31:a1:bc:
        81:4b:bb:50:84:77:2d:eb:20:20:15:8e:09:55:9e:57:d6:ff:
        b8:a9:59:42:48:7b:28:51:51:e0:b9:39:4f:6c:20:32:65:60:
        19:ab:c7:c3:5a:d3:2d:2c:54:ae:8f:ff:0d:f3:d0:64:7e:de:
        48:4f:18:7e:90:81:41:07:4e:34:fa:85:d8:7e:af:35:8a:c5:
        8a:d6:14:8d:e7:0d:6a:a4:29:14:ef:99:9a:17:7e:e1:47:4b:
        18:f2:d1:b1:0c:77:4c:f0:00:48:a4:59:20:6f:b2:af:d1:07:
        59:5a:9b:5c:53:c4:b2:4f:ff:38:00:16:15:33:c2:db:ed:17:
        06:03:2a:bb:97:7f:31:4a:f9:c9:db:ac:ba:0b:fe:f1:c9:d3:
        c2:15:7a:88:14:6d:7b:f6:f9:55:a1:32:cc:f7:73:21:7b:50:
        6a:f8:1a:b4:d7:20:6c:c4:13:53:fa:ca:72:a8:7f:6a:f4:6e:
        8d:8a:24:22:e0:b4:66:16:40:7f:84:26:52:a4:01:db:88:ca:
        ce:68:af:a9
-----BEGIN CERTIFICATE-----
MIIDYjCCAkqgAwIBAgIRANIXpi6FStndQjacd8cOFh0wDQYJKoZIhvcNAQELBQAw
FjEUMBIGA1UEAwwLRWFzeS1SU0EgQ0EwHhcNMjMwODIyMDgxMDM3WhcNMjUxMTI0
MDgxMDM3WjAOMQwwCgYDVQQDDAN2cG4wggEiMA0GCSqGSIb3DQEBAQUAA4IBDwAw
ggEKAoIBAQCbH22r82SVZD+OnfSjh1iJrSkOVcbDbQaZdotm0+6rS1fdxgxwYXAp
eXLKjictIiH0rxH423GarY07FMkoP+DFH7xU+8T5JKMadT1uM6F+h50lKkC5kpje
xNZdJpRfVCZFKJDnzRrKtAHRSC3W8kuRzX6deOyr/YbZW8JP3OVB9L2sInFRZnHE
xiTBbXUkoukjQIdwSX20xPe6UbzY4f91DDkJ43KU0L5GvvDra97awRD+dONI9Lh8
yVuEvRV0SP5pjs5Gu7W/rIo/UTns4USizzD+Y3M6iEOQSOdCllCgdlgI/S5oM2D6
h9iHbXdjNWFp2STvvmhiHCQ8IHpnxScLAgMBAAGjgbIwga8wCQYDVR0TBAIwADAd
BgNVHQ4EFgQUwZwLIWMbvGoE2c0OUnSVaTGznOQwUQYDVR0jBEowSIAUvfgxT66k
lYGS4fGvsvqP1k+cvAWhGqQYMBYxFDASBgNVBAMMC0Vhc3ktUlNBIENBghQ6Zyn2
2IhFxXjQDtU4q9yOyPEfATATBgNVHSUEDDAKBggrBgEFBQcDATALBgNVHQ8EBAMC
BaAwDgYDVR0RBAcwBYIDdnBuMA0GCSqGSIb3DQEBCwUAA4IBAQBHX0TiaYeYiD+m
h/ovD4bYuvyyRVjtZbn839g3eFJ/soku1wDunHSlQWiG3yLuIZjy0rwxobyBS7tQ
hHct6yAgFY4JVZ5X1v+4qVlCSHsoUVHguTlPbCAyZWAZq8fDWtMtLFSuj/8N89Bk
ft5ITxh+kIFBB040+oXYfq81isWK1hSN5w1qpCkU75maF37hR0sY8tGxDHdM8ABI
pFkgb7Kv0QdZWptcU8SyT/84ABYVM8Lb7RcGAyq7l38xSvnJ26y6C/7xydPCFXqI
FG179vlVoTLM93Mhe1Bq+Bq01yBsxBNT+spyqH9q9G6NiiQi4LRmFkB/hCZSpAHb
iMrOaK+p
-----END CERTIFICATE-----
